target datalayout = "e-m:e-p270:32:32-p271:32:32-p272:64:64-i64:64-i128:128-f80:128-n8:16:32:64-S128"
target triple = "x86_64-pc-linux-gnu"

%struct._wmem_map_t = type { i32, i64, ptr, ptr, ptr, i32, i32, ptr, ptr }
%struct._wmem_map_item_t = type { ptr, ptr, ptr }

@x = internal global i32 0, align 4

; Function Attrs: null_pointer_is_valid sspstrong uwtable
define zeroext i1 @wmem_map_lookup_extended(ptr noundef %0, ptr noundef %1, ptr noundef %2, ptr noundef %3) #0 {
  %5 = alloca i1, align 1
  %6 = alloca ptr, align 8
  %7 = alloca ptr, align 8
  %8 = alloca ptr, align 8
  %9 = alloca ptr, align 8
  %10 = alloca ptr, align 8
  %11 = alloca i32, align 4
  store ptr %0, ptr %6, align 8
  store ptr %1, ptr %7, align 8
  store ptr %2, ptr %8, align 8
  store ptr %3, ptr %9, align 8
  call void @llvm.lifetime.start.p0(i64 8, ptr %10) #8
  %12 = load ptr, ptr %6, align 8
  %13 = icmp eq ptr %12, null
  br i1 %13, label %19, label %14

14:                                               ; preds = %4
  %15 = load ptr, ptr %6, align 8
  %16 = getelementptr inbounds nuw %struct._wmem_map_t, ptr %15, i32 0, i32 2
  %17 = load ptr, ptr %16, align 8
  %18 = icmp eq ptr %17, null
  br i1 %18, label %19, label %20

19:                                               ; preds = %14, %4
  store i1 false, ptr %5, align 1
  store i32 1, ptr %11, align 4
  br label %75

20:                                               ; preds = %14
  %21 = load ptr, ptr %6, align 8
  %22 = getelementptr inbounds nuw %struct._wmem_map_t, ptr %21, i32 0, i32 2
  %23 = load ptr, ptr %22, align 8
  %24 = load ptr, ptr %6, align 8
  %25 = getelementptr inbounds nuw %struct._wmem_map_t, ptr %24, i32 0, i32 3
  %26 = load ptr, ptr %25, align 8
  %27 = load ptr, ptr %7, align 8
  %28 = call i32 %26(ptr noundef %27)
  %29 = load i32, ptr @x, align 4
  %30 = mul i32 %28, %29
  %31 = load ptr, ptr %6, align 8
  %32 = getelementptr inbounds nuw %struct._wmem_map_t, ptr %31, i32 0, i32 1
  %33 = load i64, ptr %32, align 8
  %34 = sub i64 32, %33
  %35 = trunc i64 %34 to i32
  %36 = lshr i32 %30, %35
  %37 = zext i32 %36 to i64
  %38 = getelementptr ptr, ptr %23, i64 %37
  %39 = load ptr, ptr %38, align 8
  store ptr %39, ptr %10, align 8
  br label %40

40:                                               ; preds = %70, %20
  %41 = load ptr, ptr %10, align 8
  %42 = icmp ne ptr %41, null
  br i1 %42, label %43, label %74

43:                                               ; preds = %40
  %44 = load ptr, ptr %6, align 8
  %45 = getelementptr inbounds nuw %struct._wmem_map_t, ptr %44, i32 0, i32 4
  %46 = load ptr, ptr %45, align 8
  %47 = load ptr, ptr %7, align 8
  %48 = load ptr, ptr %10, align 8
  %49 = getelementptr inbounds nuw %struct._wmem_map_item_t, ptr %48, i32 0, i32 0
  %50 = load ptr, ptr %49, align 8
  %51 = call i32 %46(ptr noundef %47, ptr noundef %50)
  %52 = icmp ne i32 %51, 0
  br i1 %52, label %53, label %70

53:                                               ; preds = %43
  %54 = load ptr, ptr %8, align 8
  %55 = icmp ne ptr %54, null
  br i1 %55, label %56, label %61

56:                                               ; preds = %53
  %57 = load ptr, ptr %10, align 8
  %58 = getelementptr inbounds nuw %struct._wmem_map_item_t, ptr %57, i32 0, i32 0
  %59 = load ptr, ptr %58, align 8
  %60 = load ptr, ptr %8, align 8
  store ptr %59, ptr %60, align 8
  br label %61

61:                                               ; preds = %56, %53
  %62 = load ptr, ptr %9, align 8
  %63 = icmp ne ptr %62, null
  br i1 %63, label %64, label %69

64:                                               ; preds = %61
  %65 = load ptr, ptr %10, align 8
  %66 = getelementptr inbounds nuw %struct._wmem_map_item_t, ptr %65, i32 0, i32 1
  %67 = load ptr, ptr %66, align 8
  %68 = load ptr, ptr %9, align 8
  store ptr %67, ptr %68, align 8
  br label %69

69:                                               ; preds = %64, %61
  store i1 true, ptr %5, align 1
  store i32 1, ptr %11, align 4
  br label %75

70:                                               ; preds = %43
  %71 = load ptr, ptr %10, align 8
  %72 = getelementptr inbounds nuw %struct._wmem_map_item_t, ptr %71, i32 0, i32 2
  %73 = load ptr, ptr %72, align 8
  store ptr %73, ptr %10, align 8
  br label %40, !llvm.loop !12

74:                                               ; preds = %40
  store i1 false, ptr %5, align 1
  store i32 1, ptr %11, align 4
  br label %75

75:                                               ; preds = %74, %69, %19
  call void @llvm.lifetime.end.p0(i64 8, ptr %10) #8
  %76 = load i1, ptr %5, align 1
  ret i1 %76
}