; Function Attrs: null_pointer_is_valid sspstrong uwtable
define noundef zeroext i1 @wmem_map_lookup_extended(ptr noundef readonly captures(address_is_null) %0, ptr noundef %1, ptr noundef writeonly captures(address_is_null) %2, ptr noundef writeonly captures(address_is_null) %3) local_unnamed_addr #0 {
  %5 = icmp eq ptr %0, null
  br i1 %5, label %.loopexit, label %6

6:                                                ; preds = %4
  %7 = getelementptr inbounds nuw i8, ptr %0, i64 16
  %8 = load ptr, ptr %7, align 8
  %9 = icmp eq ptr %8, null
  br i1 %9, label %.loopexit, label %10

10:                                               ; preds = %6
  %11 = getelementptr inbounds nuw i8, ptr %0, i64 24
  %12 = load ptr, ptr %11, align 8
  %13 = tail call i32 %12(ptr noundef %1)
  %14 = load i32, ptr @x, align 4
  %15 = mul i32 %14, %13
  %16 = getelementptr inbounds nuw i8, ptr %0, i64 8
  %17 = load i64, ptr %16, align 8
  %18 = trunc i64 %17 to i32
  %19 = sub i32 32, %18
  %20 = lshr i32 %15, %19
  %21 = zext i32 %20 to i64
  %22 = getelementptr ptr, ptr %8, i64 %21
  %.027 = load ptr, ptr %22, align 8
  %.not28 = icmp eq ptr %.027, null
  br i1 %.not28, label %.loopexit, label %.lr.ph

.lr.ph:                                           ; preds = %10
  %23 = getelementptr inbounds nuw i8, ptr %0, i64 32
  br label %24

24:                                               ; preds = %.lr.ph, %35
  %.029 = phi ptr [ %.027, %.lr.ph ], [ %.0, %35 ]
  %25 = load ptr, ptr %23, align 8
  %26 = load ptr, ptr %.029, align 8
  %27 = tail call i32 %25(ptr noundef %1, ptr noundef %26)
  %.not23 = icmp eq i32 %27, 0
  br i1 %.not23, label %35, label %28

28:                                               ; preds = %24
  %.not24 = icmp eq ptr %2, null
  br i1 %.not24, label %31, label %29

29:                                               ; preds = %28
  %30 = load ptr, ptr %.029, align 8
  store ptr %30, ptr %2, align 8
  br label %31

31:                                               ; preds = %29, %28
  %.not25 = icmp eq ptr %3, null
  br i1 %.not25, label %.loopexit, label %32

32:                                               ; preds = %31
  %33 = getelementptr inbounds nuw i8, ptr %.029, i64 8
  %34 = load ptr, ptr %33, align 8
  store ptr %34, ptr %3, align 8
  br label %.loopexit

35:                                               ; preds = %24
  %36 = getelementptr inbounds nuw i8, ptr %.029, i64 16
  %.0 = load ptr, ptr %36, align 8
  %.not = icmp eq ptr %.0, null
  br i1 %.not, label %.loopexit, label %24, !llvm.loop !13

.loopexit:                                        ; preds = %35, %10, %31, %32, %4, %6
  %.018 = phi i1 [ false, %6 ], [ false, %4 ], [ true, %32 ], [ true, %31 ], [ false, %10 ], [ false, %35 ]
  ret i1 %.018
}